; Function Attrs: mustprogress nofree norecurse nosync nounwind willreturn memory(argmem: read) uwtable
define noundef zeroext i1 @_ZNK6casadi8Variable9needs_derEv(ptr noundef nonnull readonly align 8 captures(none) dereferenceable(408) %0) local_unnamed_addr #10 align 2 {
  %2 = getelementptr inbounds nuw i8, ptr %0, i64 120
  %3 = load i32, ptr %2, align 8, !tbaa !99
  %.not = icmp eq i32 %3, 4
  br i1 %.not, label %4, label %7

4:                                                ; preds = %1
  %5 = getelementptr inbounds nuw i8, ptr %0, i64 116
  %6 = load i32, ptr %5, align 4, !tbaa !98
  %switch.selectcmp.case1 = icmp ne i32 %6, 5
  %switch.selectcmp.case2 = icmp ne i32 %6, 2
  %switch.selectcmp.not = and i1 %switch.selectcmp.case1, %switch.selectcmp.case2
  br label %7

7:                                                ; preds = %4, %1
  %.0 = phi i1 [ false, %1 ], [ %switch.selectcmp.not, %4 ]
  ret i1 %.0
}